target datalayout = "e-m:e-p270:32:32-p271:32:32-p272:64:64-i64:64-i128:128-f80:128-n8:16:32:64-S128"
target triple = "x86_64-pc-linux-gnu"

%struct.pg_md5_ctx = type { %union.anon, %union.anon.0, i32, [64 x i8] }
%union.anon = type { [4 x i32] }
%union.anon.0 = type { i64 }

; Function Attrs: nounwind uwtable
define void @pg_md5_update(ptr noundef %0, ptr noundef %1, i64 noundef %2) #0 {
  %4 = alloca ptr, align 8
  %5 = alloca ptr, align 8
  %6 = alloca i64, align 8
  %7 = alloca i32, align 4
  %8 = alloca i32, align 4
  store ptr %0, ptr %4, align 8
  store ptr %1, ptr %5, align 8
  store i64 %2, ptr %6, align 8
  call void @llvm.lifetime.start.p0(i64 4, ptr %7) #4
  call void @llvm.lifetime.start.p0(i64 4, ptr %8) #4
  %9 = load i64, ptr %6, align 8
  %10 = mul i64 %9, 8
  %11 = load ptr, ptr %4, align 8
  %12 = getelementptr inbounds nuw %struct.pg_md5_ctx, ptr %11, i32 0, i32 1
  %13 = load i64, ptr %12, align 8
  %14 = add i64 %13, %10
  store i64 %14, ptr %12, align 8
  %15 = load ptr, ptr %4, align 8
  %16 = getelementptr inbounds nuw %struct.pg_md5_ctx, ptr %15, i32 0, i32 2
  %17 = load i32, ptr %16, align 8
  %18 = sub i32 64, %17
  store i32 %18, ptr %7, align 4
  %19 = load i64, ptr %6, align 8
  %20 = load i32, ptr %7, align 4
  %21 = zext i32 %20 to i64
  %22 = icmp uge i64 %19, %21
  br i1 %22, label %23, label %74

23:                                               ; preds = %3
  %24 = load ptr, ptr %4, align 8
  %25 = getelementptr inbounds nuw %struct.pg_md5_ctx, ptr %24, i32 0, i32 3
  %26 = getelementptr inbounds [64 x i8], ptr %25, i64 0, i64 0
  %27 = load ptr, ptr %4, align 8
  %28 = getelementptr inbounds nuw %struct.pg_md5_ctx, ptr %27, i32 0, i32 2
  %29 = load i32, ptr %28, align 8
  %30 = zext i32 %29 to i64
  %31 = getelementptr inbounds nuw i8, ptr %26, i64 %30
  %32 = load ptr, ptr %5, align 8
  %33 = load i32, ptr %7, align 4
  %34 = zext i32 %33 to i64
  call void @llvm.memmove.p0.p0.i64(ptr align 1 %31, ptr align 1 %32, i64 %34, i1 false)
  %35 = load ptr, ptr %4, align 8
  %36 = getelementptr inbounds nuw %struct.pg_md5_ctx, ptr %35, i32 0, i32 3
  %37 = getelementptr inbounds [64 x i8], ptr %36, i64 0, i64 0
  %38 = load ptr, ptr %4, align 8
  call void @md5_calc(ptr noundef %37, ptr noundef %38)
  %39 = load i32, ptr %7, align 4
  store i32 %39, ptr %8, align 4
  br label %40

40:                                               ; preds = %52, %23
  %41 = load i32, ptr %8, align 4
  %42 = add i32 %41, 64
  %43 = zext i32 %42 to i64
  %44 = load i64, ptr %6, align 8
  %45 = icmp ule i64 %43, %44
  br i1 %45, label %46, label %55

46:                                               ; preds = %40
  %47 = load ptr, ptr %5, align 8
  %48 = load i32, ptr %8, align 4
  %49 = zext i32 %48 to i64
  %50 = getelementptr inbounds nuw i8, ptr %47, i64 %49
  %51 = load ptr, ptr %4, align 8
  call void @md5_calc(ptr noundef %50, ptr noundef %51)
  br label %52

52:                                               ; preds = %46
  %53 = load i32, ptr %8, align 4
  %54 = add i32 %53, 64
  store i32 %54, ptr %8, align 4
  br label %40, !llvm.loop !3

55:                                               ; preds = %40
  %56 = load i64, ptr %6, align 8
  %57 = load i32, ptr %8, align 4
  %58 = zext i32 %57 to i64
  %59 = sub i64 %56, %58
  %60 = trunc i64 %59 to i32
  %61 = load ptr, ptr %4, align 8
  %62 = getelementptr inbounds nuw %struct.pg_md5_ctx, ptr %61, i32 0, i32 2
  store i32 %60, ptr %62, align 8
  %63 = load ptr, ptr %4, align 8
  %64 = getelementptr inbounds nuw %struct.pg_md5_ctx, ptr %63, i32 0, i32 3
  %65 = getelementptr inbounds [64 x i8], ptr %64, i64 0, i64 0
  %66 = load ptr, ptr %5, align 8
  %67 = load i32, ptr %8, align 4
  %68 = zext i32 %67 to i64
  %69 = getelementptr inbounds nuw i8, ptr %66, i64 %68
  %70 = load ptr, ptr %4, align 8
  %71 = getelementptr inbounds nuw %struct.pg_md5_ctx, ptr %70, i32 0, i32 2
  %72 = load i32, ptr %71, align 8
  %73 = zext i32 %72 to i64
  call void @llvm.memmove.p0.p0.i64(ptr align 4 %65, ptr align 1 %69, i64 %73, i1 false)
  br label %92

74:                                               ; preds = %3
  %75 = load ptr, ptr %4, align 8
  %76 = getelementptr inbounds nuw %struct.pg_md5_ctx, ptr %75, i32 0, i32 3
  %77 = getelementptr inbounds [64 x i8], ptr %76, i64 0, i64 0
  %78 = load ptr, ptr %4, align 8
  %79 = getelementptr inbounds nuw %struct.pg_md5_ctx, ptr %78, i32 0, i32 2
  %80 = load i32, ptr %79, align 8
  %81 = zext i32 %80 to i64
  %82 = getelementptr inbounds nuw i8, ptr %77, i64 %81
  %83 = load ptr, ptr %5, align 8
  %84 = load i64, ptr %6, align 8
  call void @llvm.memmove.p0.p0.i64(ptr align 1 %82, ptr align 1 %83, i64 %84, i1 false)
  %85 = load i64, ptr %6, align 8
  %86 = load ptr, ptr %4, align 8
  %87 = getelementptr inbounds nuw %struct.pg_md5_ctx, ptr %86, i32 0, i32 2
  %88 = load i32, ptr %87, align 8
  %89 = zext i32 %88 to i64
  %90 = add i64 %89, %85
  %91 = trunc i64 %90 to i32
  store i32 %91, ptr %87, align 8
  br label %92

92:                                               ; preds = %74, %55
  call void @llvm.lifetime.end.p0(i64 4, ptr %8) #4
  call void @llvm.lifetime.end.p0(i64 4, ptr %7) #4
  ret void
}