; Function Attrs: nofree norecurse nosync nounwind memory(argmem: readwrite) uwtable
define void @pg_md5_update(ptr noundef captures(none) %0, ptr noundef readonly captures(none) %1, i64 noundef %2) local_unnamed_addr #2 {
  %4 = shl i64 %2, 3
  %5 = getelementptr inbounds nuw i8, ptr %0, i64 16
  %6 = load i64, ptr %5, align 8
  %7 = add i64 %6, %4
  store i64 %7, ptr %5, align 8
  %8 = getelementptr inbounds nuw i8, ptr %0, i64 24
  %9 = load i32, ptr %8, align 8
  %10 = sub i32 64, %9
  %11 = zext i32 %10 to i64
  %.not = icmp ult i64 %2, %11
  %12 = getelementptr inbounds nuw i8, ptr %0, i64 28
  %13 = zext i32 %9 to i64
  %14 = getelementptr inbounds nuw i8, ptr %12, i64 %13
  br i1 %.not, label %27, label %15

15:                                               ; preds = %3
  tail call void @llvm.memmove.p0.p0.i64(ptr nonnull align 1 %14, ptr align 1 %1, i64 %11, i1 false)
  tail call fastcc void @md5_calc(ptr noundef nonnull %12, ptr noundef nonnull %0)
  %16 = sub i32 128, %9
  %17 = zext i32 %16 to i64
  %.not3233 = icmp ult i64 %2, %17
  br i1 %.not3233, label %._crit_edge, label %.lr.ph

.lr.ph:                                           ; preds = %15, %.lr.ph
  %18 = phi i32 [ %21, %.lr.ph ], [ %16, %15 ]
  %.034 = phi i32 [ %18, %.lr.ph ], [ %10, %15 ]
  %19 = zext i32 %.034 to i64
  %20 = getelementptr inbounds nuw i8, ptr %1, i64 %19
  tail call fastcc void @md5_calc(ptr noundef %20, ptr noundef nonnull %0)
  %21 = add i32 %18, 64
  %22 = zext i32 %21 to i64
  %.not32 = icmp ult i64 %2, %22
  br i1 %.not32, label %._crit_edge.loopexit, label %.lr.ph, !llvm.loop !3

._crit_edge.loopexit:                             ; preds = %.lr.ph
  %.pre = zext i32 %18 to i64
  br label %._crit_edge

._crit_edge:                                      ; preds = %._crit_edge.loopexit, %15
  %.pre-phi = phi i64 [ %.pre, %._crit_edge.loopexit ], [ %11, %15 ]
  %.0.lcssa = phi i32 [ %18, %._crit_edge.loopexit ], [ %10, %15 ]
  %23 = trunc i64 %2 to i32
  %24 = sub i32 %23, %.0.lcssa
  store i32 %24, ptr %8, align 8
  %25 = getelementptr inbounds nuw i8, ptr %1, i64 %.pre-phi
  %26 = zext i32 %24 to i64
  tail call void @llvm.memmove.p0.p0.i64(ptr nonnull align 4 %12, ptr align 1 %25, i64 %26, i1 false)
  br label %30

27:                                               ; preds = %3
  tail call void @llvm.memmove.p0.p0.i64(ptr nonnull align 1 %14, ptr align 1 %1, i64 %2, i1 false)
  %28 = trunc i64 %2 to i32
  %29 = add i32 %9, %28
  store i32 %29, ptr %8, align 8
  br label %30

30:                                               ; preds = %27, %._crit_edge
  ret void
}